; Function Attrs: mustprogress uwtable
define noundef i32 @_Z6fn2ftpPKc(ptr noundef %0) local_unnamed_addr #2 personality ptr @__gxx_personality_v0 {
  %2 = alloca ptr, align 8
  %3 = alloca %"class.std::filesystem::__cxx11::path", align 8
  store ptr %0, ptr %2, align 8, !tbaa !19
  %4 = icmp eq ptr %0, null
  br i1 %4, label %21, label %5

5:                                                ; preds = %1
  call void @llvm.lifetime.start.p0(i64 40, ptr nonnull %3) #16
  call void @_ZNSt10filesystem7__cxx114pathC2IPKcS1_EERKT_NS1_6formatE(ptr noundef nonnull align 8 dereferenceable(40) %3, ptr noundef nonnull align 8 dereferenceable(8) %2, i8 noundef zeroext 2)
  %6 = invoke noundef i32 @_Z6fn2ftpRKNSt10filesystem7__cxx114pathE(ptr noundef nonnull align 8 dereferenceable(40) %3)
          to label %7 unwind label %19

7:                                                ; preds = %5
  %8 = getelementptr inbounds nuw i8, ptr %3, i64 32
  %9 = load ptr, ptr %8, align 8, !tbaa !20
  %.not.i.i.i = icmp eq ptr %9, null
  br i1 %.not.i.i.i, label %_ZNSt10filesystem7__cxx114path5_ListD2Ev.exit.i, label %10

10:                                               ; preds = %7
  call void @_ZNKSt10filesystem7__cxx114path5_List13_Impl_deleterclEPNS2_5_ImplE(ptr noundef nonnull align 8 dereferenceable(8) %8, ptr noundef nonnull %9) #16
  br label %_ZNSt10filesystem7__cxx114path5_ListD2Ev.exit.i

_ZNSt10filesystem7__cxx114path5_ListD2Ev.exit.i:  ; preds = %10, %7
  store ptr null, ptr %8, align 8, !tbaa !20
  %11 = load ptr, ptr %3, align 8, !tbaa !22
  %12 = getelementptr inbounds nuw i8, ptr %3, i64 16
  %13 = icmp eq ptr %11, %12
  br i1 %13, label %_ZNKSt7__cxx1112basic_stringIcSt11char_traitsIcESaIcEE11_M_is_localEv.exit.thread.i.i.i, label %_ZNKSt7__cxx1112basic_stringIcSt11char_traitsIcESaIcEE11_M_is_localEv.exit.i.i.i

_ZNKSt7__cxx1112basic_stringIcSt11char_traitsIcESaIcEE11_M_is_localEv.exit.thread.i.i.i: ; preds = %_ZNSt10filesystem7__cxx114path5_ListD2Ev.exit.i
  %14 = getelementptr inbounds nuw i8, ptr %3, i64 8
  %15 = load i64, ptr %14, align 8, !tbaa !26
  %16 = icmp ult i64 %15, 16
  call void @llvm.assume(i1 %16)
  br label %_ZNSt10filesystem7__cxx114pathD2Ev.exit

_ZNKSt7__cxx1112basic_stringIcSt11char_traitsIcESaIcEE11_M_is_localEv.exit.i.i.i: ; preds = %_ZNSt10filesystem7__cxx114path5_ListD2Ev.exit.i
  %17 = load i64, ptr %12, align 8, !tbaa !12
  %18 = add i64 %17, 1
  call void @_ZdlPvm(ptr noundef %11, i64 noundef %18) #17
  br label %_ZNSt10filesystem7__cxx114pathD2Ev.exit

_ZNSt10filesystem7__cxx114pathD2Ev.exit:          ; preds = %_ZNKSt7__cxx1112basic_stringIcSt11char_traitsIcESaIcEE11_M_is_localEv.exit.thread.i.i.i, %_ZNKSt7__cxx1112basic_stringIcSt11char_traitsIcESaIcEE11_M_is_localEv.exit.i.i.i
  call void @llvm.lifetime.end.p0(i64 40, ptr nonnull %3) #16
  br label %21

19:                                               ; preds = %5
  %20 = landingpad { ptr, i32 }
          cleanup
  call void @_ZNSt10filesystem7__cxx114pathD2Ev(ptr noundef nonnull align 8 dereferenceable(40) %3) #16
  call void @llvm.lifetime.end.p0(i64 40, ptr nonnull %3) #16
  resume { ptr, i32 } %20

21:                                               ; preds = %1, %_ZNSt10filesystem7__cxx114pathD2Ev.exit
  %.0 = phi i32 [ %6, %_ZNSt10filesystem7__cxx114pathD2Ev.exit ], [ 44, %1 ]
  ret i32 %.0
}